; ModuleID = 'source-C-CXX/61/1423.c'
source_filename = "source-C-CXX/61/1423.c"
target datalayout = "e-m:e-p270:32:32-p271:32:32-p272:64:64-i64:64-f80:128-n8:16:32:64-S128"
target triple = "x86_64-pc-linux-gnu"

; Function Attrs: nounwind sspstrong uwtable
define dso_local i32 @main() local_unnamed_addr #0 {
  %1 = tail call noalias align 16 dereferenceable_or_null(1000) i8* @malloc(i64 1000) #4
  %2 = tail call noalias align 16 dereferenceable_or_null(1000) i8* @malloc(i64 1000) #4
  %3 = tail call i32 (i8*, ...) bitcast (i32 (...)* @gets to i32 (i8*, ...)*)(i8* %1) #4
  br label %4

4:                                                ; preds = %23, %0
  %5 = phi i64 [ %26, %23 ], [ 0, %0 ]
  %6 = phi i32 [ %24, %23 ], [ 0, %0 ]
  %7 = phi i32 [ %25, %23 ], [ 0, %0 ]
  %8 = getelementptr inbounds i8, i8* %1, i64 %5
  %9 = load i8, i8* %8, align 1, !tbaa !5
  switch i8 %9, label %10 [
    i8 0, label %27
    i8 32, label %14
  ]

10:                                               ; preds = %4
  %11 = sext i32 %6 to i64
  %12 = getelementptr inbounds i8, i8* %2, i64 %11
  store i8 %9, i8* %12, align 1, !tbaa !5
  %13 = add nsw i32 %6, 1
  br label %23

14:                                               ; preds = %4
  %15 = icmp eq i32 %7, 0
  br i1 %15, label %16, label %20

16:                                               ; preds = %14
  %17 = sext i32 %6 to i64
  %18 = getelementptr inbounds i8, i8* %2, i64 %17
  store i8 32, i8* %18, align 1, !tbaa !5
  %19 = add nsw i32 %6, 1
  br label %20

20:                                               ; preds = %16, %14
  %21 = phi i32 [ %19, %16 ], [ %6, %14 ]
  %22 = add nsw i32 %7, 1
  br label %23

23:                                               ; preds = %10, %20
  %24 = phi i32 [ %13, %10 ], [ %21, %20 ]
  %25 = phi i32 [ 0, %10 ], [ %22, %20 ]
  %26 = add nuw i64 %5, 1
  br label %4, !llvm.loop !8

27:                                               ; preds = %4
  %28 = sext i32 %6 to i64
  %29 = getelementptr inbounds i8, i8* %2, i64 %28
  store i8 0, i8* %29, align 1, !tbaa !5
  %30 = tail call i32 @puts(i8* nonnull dereferenceable(1) %2)
  ret i32 0
}

; Function Attrs: inaccessiblememonly mustprogress nofree nounwind willreturn
declare noalias noundef align 16 i8* @malloc(i64 noundef) local_unnamed_addr #1

declare i32 @gets(...) local_unnamed_addr #2

; Function Attrs: nofree nounwind
declare noundef i32 @puts(i8* nocapture noundef readonly) local_unnamed_addr #3


!llvm.module.flags = !{!0, !1, !2, !3}
!llvm.ident = !{!4}

!0 = !{i32 1, !"wchar_size", i32 4}
!1 = !{i32 7, !"PIC Level", i32 2}
!2 = !{i32 7, !"PIE Level", i32 2}
!3 = !{i32 7, !"uwtable", i32 1}
!4 = !{!"clang version 13.0.0"}
!5 = !{!6, !6, i64 0}
!6 = !{!"omnipotent char", !7, i64 0}
!7 = !{!"Simple C/C++ TBAA"}
!8 = distinct !{!8, !9}
!9 = !{!"llvm.loop.mustprogress"}
